target datalayout = "e-m:e-p270:32:32-p271:32:32-p272:64:64-i64:64-i128:128-f80:128-n8:16:32:64-S128"
target triple = "x86_64-pc-linux-gnu"

%"class.pxrInternal_v0_24__pxrReserved__::SdfPath" = type { %"struct.pxrInternal_v0_24__pxrReserved__::Sdf_PathNodeHandleImpl", %"struct.pxrInternal_v0_24__pxrReserved__::Sdf_PathNodeHandleImpl.0" }
%"struct.pxrInternal_v0_24__pxrReserved__::Sdf_PathNodeHandleImpl" = type { %"struct.pxrInternal_v0_24__pxrReserved__::Sdf_Pool<pxrInternal_v0_24__pxrReserved__::Sdf_PathPrimTag, 24, 8>::Handle" }
%"struct.pxrInternal_v0_24__pxrReserved__::Sdf_Pool<pxrInternal_v0_24__pxrReserved__::Sdf_PathPrimTag, 24, 8>::Handle" = type { i32 }
%"struct.pxrInternal_v0_24__pxrReserved__::Sdf_PathNodeHandleImpl.0" = type { %"struct.pxrInternal_v0_24__pxrReserved__::Sdf_Pool<pxrInternal_v0_24__pxrReserved__::Sdf_PathPropTag, 24, 8>::Handle" }
%"struct.pxrInternal_v0_24__pxrReserved__::Sdf_Pool<pxrInternal_v0_24__pxrReserved__::Sdf_PathPropTag, 24, 8>::Handle" = type { i32 }
%"class.pxrInternal_v0_24__pxrReserved__::Sdf_PathNode" = type { %"class.pxrInternal_v0_24__pxrReserved__::TfDelegatedCountPtr", %"struct.std::atomic", i16, i8, i8 }
%"class.pxrInternal_v0_24__pxrReserved__::TfDelegatedCountPtr" = type { ptr }
%"struct.std::atomic" = type { %"struct.std::__atomic_base" }
%"struct.std::__atomic_base" = type { i32 }

@_ZN32pxrInternal_v0_24__pxrReserved__8Sdf_PoolINS_15Sdf_PathPrimTagELj24ELj8ELj16384EE13_regionStartsE = external global [257 x ptr], align 16

; Function Attrs: mustprogress nounwind uwtable
define linkonce_odr noundef ptr @_ZN32pxrInternal_v0_24__pxrReserved__8Sdf_PoolINS_15Sdf_PathPrimTagELj24ELj8ELj16384EE7_GetPtrEjj(i32 noundef %0, i32 noundef %1) #2 comdat align 2 {
  %3 = alloca i32, align 4
  %4 = alloca i32, align 4
  store i32 %0, ptr %3, align 4
  store i32 %1, ptr %4, align 4
  %5 = load i32, ptr %3, align 4
  %6 = zext i32 %5 to i64
  %7 = getelementptr inbounds [257 x ptr], ptr @_ZN32pxrInternal_v0_24__pxrReserved__8Sdf_PoolINS_15Sdf_PathPrimTagELj24ELj8ELj16384EE13_regionStartsE, i64 0, i64 %6
  %8 = load ptr, ptr %7, align 8
  %9 = load i32, ptr %4, align 4
  %10 = mul i32 %9, 24
  %11 = zext i32 %10 to i64
  %12 = getelementptr inbounds i8, ptr %8, i64 %11
  ret ptr %12
}

; Function Attrs: mustprogress nounwind uwtable
define linkonce_odr noundef i64 @_ZNK32pxrInternal_v0_24__pxrReserved__7SdfPath6_AsIntEv(ptr noundef nonnull align 4 dereferenceable(8) %0) #2 comdat align 2 {
  %2 = alloca ptr, align 8
  %3 = alloca i64, align 8
  store ptr %0, ptr %2, align 8
  %4 = load ptr, ptr %2, align 8
  call void @llvm.memcpy.p0.p0.i64(ptr align 8 %3, ptr align 4 %4, i64 8, i1 false)
  %5 = load i64, ptr %3, align 8
  ret i64 %5
}

; Function Attrs: mustprogress nounwind uwtable
define linkonce_odr noundef ptr @_ZNK32pxrInternal_v0_24__pxrReserved__8Sdf_PoolINS_15Sdf_PathPrimTagELj24ELj8ELj16384EE6Handle6GetPtrEv(ptr noundef nonnull align 4 dereferenceable(4) %0) #2 comdat align 2 personality ptr @__gxx_personality_v0 {
  %2 = alloca ptr, align 8
  store ptr %0, ptr %2, align 8
  %3 = load ptr, ptr %2, align 8
  %4 = getelementptr inbounds nuw %"struct.pxrInternal_v0_24__pxrReserved__::Sdf_Pool<pxrInternal_v0_24__pxrReserved__::Sdf_PathPrimTag, 24, 8>::Handle", ptr %3, i32 0, i32 0
  %5 = load i32, ptr %4, align 4
  %6 = and i32 %5, 255
  %7 = getelementptr inbounds nuw %"struct.pxrInternal_v0_24__pxrReserved__::Sdf_Pool<pxrInternal_v0_24__pxrReserved__::Sdf_PathPrimTag, 24, 8>::Handle", ptr %3, i32 0, i32 0
  %8 = load i32, ptr %7, align 4
  %9 = lshr i32 %8, 8
  %10 = invoke noundef ptr @_ZN32pxrInternal_v0_24__pxrReserved__8Sdf_PoolINS_15Sdf_PathPrimTagELj24ELj8ELj16384EE7_GetPtrEjj(i32 noundef %6, i32 noundef %9)
          to label %11 unwind label %12

11:                                               ; preds = %1
  ret ptr %10

12:                                               ; preds = %1
  %13 = landingpad { ptr, i32 }
          catch ptr null
  %14 = extractvalue { ptr, i32 } %13, 0
  call void @__clang_call_terminate(ptr %14) #15
  unreachable
}

; Function Attrs: noreturn nounwind uwtable
define linkonce_odr hidden void @__clang_call_terminate(ptr noundef %0) #12 comdat {
  %2 = call ptr @__cxa_begin_catch(ptr %0) #5
  call void @_ZSt9terminatev() #15
  unreachable
}

; Function Attrs: mustprogress nounwind uwtable
define linkonce_odr noundef zeroext i1 @_ZNK32pxrInternal_v0_24__pxrReserved__8Sdf_PoolINS_15Sdf_PathPropTagELj24ELj8ELj16384EE6HandlecvbEv(ptr noundef nonnull align 4 dereferenceable(4) %0) #2 comdat align 2 {
  %2 = alloca ptr, align 8
  store ptr %0, ptr %2, align 8
  %3 = load ptr, ptr %2, align 8
  %4 = getelementptr inbounds nuw %"struct.pxrInternal_v0_24__pxrReserved__::Sdf_Pool<pxrInternal_v0_24__pxrReserved__::Sdf_PathPropTag, 24, 8>::Handle", ptr %3, i32 0, i32 0
  %5 = load i32, ptr %4, align 4
  %6 = icmp ne i32 %5, 0
  ret i1 %6
}

; Function Attrs: mustprogress uwtable
define linkonce_odr noundef zeroext i1 @_ZNK32pxrInternal_v0_24__pxrReserved__7SdfPatheqERKS0_(ptr noundef nonnull align 4 dereferenceable(8) %0, ptr noundef nonnull align 4 dereferenceable(8) %1) #0 comdat align 2 {
  %3 = alloca ptr, align 8
  %4 = alloca ptr, align 8
  store ptr %0, ptr %3, align 8
  store ptr %1, ptr %4, align 8
  %5 = load ptr, ptr %3, align 8
  %6 = call noundef i64 @_ZNK32pxrInternal_v0_24__pxrReserved__7SdfPath6_AsIntEv(ptr noundef nonnull align 4 dereferenceable(8) %5)
  %7 = load ptr, ptr %4, align 8
  %8 = call noundef i64 @_ZNK32pxrInternal_v0_24__pxrReserved__7SdfPath6_AsIntEv(ptr noundef nonnull align 4 dereferenceable(8) %7)
  %9 = icmp eq i64 %6, %8
  ret i1 %9
}

; Function Attrs: mustprogress nounwind uwtable
define linkonce_odr noundef zeroext i8 @_ZNK32pxrInternal_v0_24__pxrReserved__12Sdf_PathNode11GetNodeTypeEv(ptr noundef nonnull align 8 dereferenceable(16) %0) #2 comdat align 2 {
  %2 = alloca ptr, align 8
  store ptr %0, ptr %2, align 8
  %3 = load ptr, ptr %2, align 8
  %4 = getelementptr inbounds nuw %"class.pxrInternal_v0_24__pxrReserved__::Sdf_PathNode", ptr %3, i32 0, i32 3
  %5 = load i8, ptr %4, align 2
  ret i8 %5
}

; Function Attrs: mustprogress nounwind uwtable
define linkonce_odr noundef ptr @_ZNK32pxrInternal_v0_24__pxrReserved__22Sdf_PathNodeHandleImplINS_8Sdf_PoolINS_15Sdf_PathPrimTagELj24ELj8ELj16384EE6HandleELb1EKNS_12Sdf_PathNodeEE3getEv(ptr noundef nonnull align 4 dereferenceable(4) %0) #2 comdat align 2 {
  %2 = alloca ptr, align 8
  store ptr %0, ptr %2, align 8
  %3 = load ptr, ptr %2, align 8
  %4 = getelementptr inbounds nuw %"struct.pxrInternal_v0_24__pxrReserved__::Sdf_PathNodeHandleImpl", ptr %3, i32 0, i32 0
  %5 = call noundef ptr @_ZNK32pxrInternal_v0_24__pxrReserved__8Sdf_PoolINS_15Sdf_PathPrimTagELj24ELj8ELj16384EE6Handle6GetPtrEv(ptr noundef nonnull align 4 dereferenceable(4) %4) #5
  ret ptr %5
}

; Function Attrs: mustprogress nounwind uwtable
define linkonce_odr noundef zeroext i1 @_ZNK32pxrInternal_v0_24__pxrReserved__22Sdf_PathNodeHandleImplINS_8Sdf_PoolINS_15Sdf_PathPropTagELj24ELj8ELj16384EE6HandleELb0EKNS_12Sdf_PathNodeEEcvbEv(ptr noundef nonnull align 4 dereferenceable(4) %0) #2 comdat align 2 personality ptr @__gxx_personality_v0 {
  %2 = alloca ptr, align 8
  store ptr %0, ptr %2, align 8
  %3 = load ptr, ptr %2, align 8
  %4 = getelementptr inbounds nuw %"struct.pxrInternal_v0_24__pxrReserved__::Sdf_PathNodeHandleImpl.0", ptr %3, i32 0, i32 0
  %5 = invoke noundef zeroext i1 @_ZNK32pxrInternal_v0_24__pxrReserved__8Sdf_PoolINS_15Sdf_PathPropTagELj24ELj8ELj16384EE6HandlecvbEv(ptr noundef nonnull align 4 dereferenceable(4) %4)
          to label %6 unwind label %7

6:                                                ; preds = %1
  ret i1 %5

7:                                                ; preds = %1
  %8 = landingpad { ptr, i32 }
          catch ptr null
  %9 = extractvalue { ptr, i32 } %8, 0
  call void @__clang_call_terminate(ptr %9) #15
  unreachable
}

; Function Attrs: mustprogress uwtable
define noundef zeroext i1 @_ZNK32pxrInternal_v0_24__pxrReserved__7SdfPath32IsPrimOrPrimVariantSelectionPathEv(ptr noundef nonnull align 4 dereferenceable(8) %0) #0 align 2 {
  %2 = alloca i1, align 1
  %3 = alloca ptr, align 8
  %4 = alloca ptr, align 8
  %5 = alloca i8, align 1
  store ptr %0, ptr %3, align 8
  %6 = load ptr, ptr %3, align 8
  %7 = getelementptr inbounds nuw %"class.pxrInternal_v0_24__pxrReserved__::SdfPath", ptr %6, i32 0, i32 1
  %8 = call noundef zeroext i1 @_ZNK32pxrInternal_v0_24__pxrReserved__22Sdf_PathNodeHandleImplINS_8Sdf_PoolINS_15Sdf_PathPropTagELj24ELj8ELj16384EE6HandleELb0EKNS_12Sdf_PathNodeEEcvbEv(ptr noundef nonnull align 4 dereferenceable(4) %7) #5
  br i1 %8, label %9, label %10

9:                                                ; preds = %1
  store i1 false, ptr %2, align 1
  br label %31

10:                                               ; preds = %1
  %11 = getelementptr inbounds nuw %"class.pxrInternal_v0_24__pxrReserved__::SdfPath", ptr %6, i32 0, i32 0
  %12 = call noundef ptr @_ZNK32pxrInternal_v0_24__pxrReserved__22Sdf_PathNodeHandleImplINS_8Sdf_PoolINS_15Sdf_PathPrimTagELj24ELj8ELj16384EE6HandleELb1EKNS_12Sdf_PathNodeEE3getEv(ptr noundef nonnull align 4 dereferenceable(4) %11) #5
  store ptr %12, ptr %4, align 8
  %13 = load ptr, ptr %4, align 8
  %14 = icmp ne ptr %13, null
  br i1 %14, label %15, label %30

15:                                               ; preds = %10
  %16 = load ptr, ptr %4, align 8
  %17 = call noundef zeroext i8 @_ZNK32pxrInternal_v0_24__pxrReserved__12Sdf_PathNode11GetNodeTypeEv(ptr noundef nonnull align 8 dereferenceable(16) %16)
  store i8 %17, ptr %5, align 1
  %18 = load i8, ptr %5, align 1
  %19 = zext i8 %18 to i32
  %20 = icmp eq i32 %19, 1
  br i1 %20, label %28, label %21

21:                                               ; preds = %15
  %22 = load i8, ptr %5, align 1
  %23 = zext i8 %22 to i32
  %24 = icmp eq i32 %23, 2
  br i1 %24, label %28, label %25

25:                                               ; preds = %21
  %26 = call noundef nonnull align 4 dereferenceable(8) ptr @_ZN32pxrInternal_v0_24__pxrReserved__7SdfPath21ReflexiveRelativePathEv()
  %27 = call noundef zeroext i1 @_ZNK32pxrInternal_v0_24__pxrReserved__7SdfPatheqERKS0_(ptr noundef nonnull align 4 dereferenceable(8) %6, ptr noundef nonnull align 4 dereferenceable(8) %26)
  br label %28

28:                                               ; preds = %25, %21, %15
  %29 = phi i1 [ true, %21 ], [ true, %15 ], [ %27, %25 ]
  store i1 %29, ptr %2, align 1
  br label %31

30:                                               ; preds = %10
  store i1 false, ptr %2, align 1
  br label %31

31:                                               ; preds = %30, %28, %9
  %32 = load i1, ptr %2, align 1
  ret i1 %32
}