; Function Attrs: mustprogress uwtable
define noundef zeroext i1 @_ZNK32pxrInternal_v0_24__pxrReserved__7SdfPath32IsPrimOrPrimVariantSelectionPathEv(ptr nocapture noundef nonnull readonly align 4 dereferenceable(8) %0) local_unnamed_addr #0 align 2 personality ptr @__gxx_personality_v0 {
  %2 = getelementptr inbounds nuw i8, ptr %0, i64 4
  %3 = load i32, ptr %2, align 4
  %.not8 = icmp eq i32 %3, 0
  br i1 %.not8, label %4, label %21

4:                                                ; preds = %1
  %5 = load i32, ptr %0, align 4
  %6 = and i32 %5, 255
  %7 = zext nneg i32 %6 to i64
  %8 = getelementptr inbounds [257 x ptr], ptr @_ZN32pxrInternal_v0_24__pxrReserved__8Sdf_PoolINS_15Sdf_PathPrimTagELj24ELj8ELj16384EE13_regionStartsE, i64 0, i64 %7
  %9 = load ptr, ptr %8, align 8
  %.not = icmp eq ptr %9, null
  br i1 %.not, label %21, label %10

10:                                               ; preds = %4
  %11 = lshr i32 %5, 8
  %12 = mul nuw nsw i32 %11, 24
  %13 = zext nneg i32 %12 to i64
  %14 = getelementptr inbounds i8, ptr %9, i64 %13
  %15 = getelementptr inbounds nuw i8, ptr %14, i64 14
  %16 = load i8, ptr %15, align 2
  %17 = add i8 %16, -1
  %or.cond = icmp ult i8 %17, 2
  br i1 %or.cond, label %21, label %18

18:                                               ; preds = %10
  %19 = tail call noundef nonnull align 4 dereferenceable(8) ptr @_ZN32pxrInternal_v0_24__pxrReserved__7SdfPath21ReflexiveRelativePathEv()
  %.0.copyload.i.i = load i64, ptr %0, align 4
  %.0.copyload.i2.i = load i64, ptr %19, align 4
  %20 = icmp eq i64 %.0.copyload.i.i, %.0.copyload.i2.i
  br label %21

21:                                               ; preds = %4, %10, %18, %1
  %.0 = phi i1 [ false, %1 ], [ true, %10 ], [ %20, %18 ], [ false, %4 ]
  ret i1 %.0
}